; ModuleID = 'source-C-CXX/4/115.c'
source_filename = "source-C-CXX/4/115.c"
target datalayout = "e-m:e-p270:32:32-p271:32:32-p272:64:64-i64:64-f80:128-n8:16:32:64-S128"
target triple = "x86_64-pc-linux-gnu"

@.str = private unnamed_addr constant [4 x i8] c"%lf\00", align 1
@.str.1 = private unnamed_addr constant [5 x i8] c"%s%s\00", align 1
@.str.2 = private unnamed_addr constant [6 x i8] c"error\00", align 1
@.str.3 = private unnamed_addr constant [4 x i8] c"yes\00", align 1
@.str.4 = private unnamed_addr constant [3 x i8] c"no\00", align 1

; Function Attrs: nofree nounwind sspstrong uwtable
define dso_local i32 @main() local_unnamed_addr #0 {
  %1 = alloca [500 x i8], align 16
  %2 = alloca [500 x i8], align 16
  %3 = alloca double, align 8
  %4 = getelementptr inbounds [500 x i8], [500 x i8]* %1, i64 0, i64 0
  call void @llvm.lifetime.start.p0i8(i64 500, i8* nonnull %4) #4
  %5 = getelementptr inbounds [500 x i8], [500 x i8]* %2, i64 0, i64 0
  call void @llvm.lifetime.start.p0i8(i64 500, i8* nonnull %5) #4
  %6 = bitcast double* %3 to i8*
  call void @llvm.lifetime.start.p0i8(i64 8, i8* nonnull %6) #4
  %7 = call i32 (i8*, ...) @__isoc99_scanf(i8* getelementptr inbounds ([4 x i8], [4 x i8]* @.str, i64 0, i64 0), double* nonnull %3)
  %8 = call i32 (i8*, ...) @__isoc99_scanf(i8* getelementptr inbounds ([5 x i8], [5 x i8]* @.str.1, i64 0, i64 0), i8* nonnull %4, i8* nonnull %5)
  %9 = call i64 @strlen(i8* noundef nonnull %4) #5
  %10 = uitofp i64 %9 to double
  %11 = icmp eq i64 %9, 0
  br i1 %11, label %35, label %12

12:                                               ; preds = %0
  %13 = call i64 @strlen(i8* noundef nonnull %5) #5
  %14 = uitofp i64 %13 to double
  %15 = fcmp une double %14, %10
  br i1 %15, label %24, label %16

16:                                               ; preds = %12, %27
  %17 = phi i64 [ %31, %27 ], [ 0, %12 ]
  %18 = phi double [ %30, %27 ], [ 0.000000e+00, %12 ]
  %19 = getelementptr inbounds [500 x i8], [500 x i8]* %1, i64 0, i64 %17
  %20 = load i8, i8* %19, align 1, !tbaa !5
  switch i8 %20, label %24 [
    i8 65, label %21
    i8 84, label %21
    i8 67, label %21
    i8 71, label %21
  ]

21:                                               ; preds = %16, %16, %16, %16
  %22 = getelementptr inbounds [500 x i8], [500 x i8]* %2, i64 0, i64 %17
  %23 = load i8, i8* %22, align 1, !tbaa !5
  switch i8 %23, label %24 [
    i8 65, label %27
    i8 84, label %27
    i8 67, label %27
    i8 71, label %27
  ]

24:                                               ; preds = %16, %21, %12
  %25 = phi double [ 0.000000e+00, %12 ], [ %18, %21 ], [ %18, %16 ]
  %26 = call i32 (i8*, ...) @printf(i8* nonnull dereferenceable(1) getelementptr inbounds ([6 x i8], [6 x i8]* @.str.2, i64 0, i64 0))
  br label %35

27:                                               ; preds = %21, %21, %21, %21
  %28 = icmp eq i8 %20, %23
  %29 = fadd double %18, 1.000000e+00
  %30 = select i1 %28, double %29, double %18
  %31 = add nuw i64 %17, 1
  %32 = trunc i64 %31 to i32
  %33 = sitofp i32 %32 to double
  %34 = fcmp olt double %33, %10
  br i1 %34, label %16, label %35, !llvm.loop !8

35:                                               ; preds = %27, %0, %24
  %36 = phi double [ %25, %24 ], [ 0.000000e+00, %0 ], [ %30, %27 ]
  %37 = phi i1 [ true, %24 ], [ false, %0 ], [ false, %27 ]
  %38 = fdiv double %36, %10
  %39 = load double, double* %3, align 8, !tbaa !10
  %40 = fcmp ogt double %38, %39
  br i1 %40, label %44, label %41

41:                                               ; preds = %35
  %42 = fcmp ugt double %38, %39
  %43 = select i1 %37, i1 true, i1 %42
  br i1 %43, label %47, label %44

44:                                               ; preds = %41, %35
  %45 = phi i8* [ getelementptr inbounds ([4 x i8], [4 x i8]* @.str.3, i64 0, i64 0), %35 ], [ getelementptr inbounds ([3 x i8], [3 x i8]* @.str.4, i64 0, i64 0), %41 ]
  %46 = call i32 (i8*, ...) @printf(i8* nonnull dereferenceable(1) %45)
  br label %47

47:                                               ; preds = %44, %41
  call void @llvm.lifetime.end.p0i8(i64 8, i8* nonnull %6) #4
  call void @llvm.lifetime.end.p0i8(i64 500, i8* nonnull %5) #4
  call void @llvm.lifetime.end.p0i8(i64 500, i8* nonnull %4) #4
  ret i32 0
}

; Function Attrs: argmemonly mustprogress nofree nosync nounwind willreturn
declare void @llvm.lifetime.start.p0i8(i64 immarg, i8* nocapture) #1

; Function Attrs: nofree nounwind
declare noundef i32 @__isoc99_scanf(i8* nocapture noundef readonly, ...) local_unnamed_addr #2

; Function Attrs: argmemonly mustprogress nofree nounwind readonly willreturn
declare i64 @strlen(i8* nocapture) local_unnamed_addr #3

; Function Attrs: nofree nounwind
declare noundef i32 @printf(i8* nocapture noundef readonly, ...) local_unnamed_addr #2

; Function Attrs: argmemonly mustprogress nofree nosync nounwind willreturn
declare void @llvm.lifetime.end.p0i8(i64 immarg, i8* nocapture) #1


!llvm.module.flags = !{!0, !1, !2, !3}
!llvm.ident = !{!4}

!0 = !{i32 1, !"wchar_size", i32 4}
!1 = !{i32 7, !"PIC Level", i32 2}
!2 = !{i32 7, !"PIE Level", i32 2}
!3 = !{i32 7, !"uwtable", i32 1}
!4 = !{!"clang version 13.0.0"}
!5 = !{!6, !6, i64 0}
!6 = !{!"omnipotent char", !7, i64 0}
!7 = !{!"Simple C/C++ TBAA"}
!8 = distinct !{!8, !9}
!9 = !{!"llvm.loop.mustprogress"}
!10 = !{!11, !11, i64 0}
!11 = !{!"double", !6, i64 0}
